; Function Attrs: mustprogress uwtable
define noundef zeroext i1 @_ZN3g2o7cholmod7Cholmod7analyzeEv(ptr noundef nonnull readonly align 8 captures(none) dereferenceable(8) %0) local_unnamed_addr #0 align 2 {
  %2 = load ptr, ptr %0, align 8, !tbaa !29
  %3 = getelementptr inbounds nuw i8, ptr %2, i64 168
  store i32 1, ptr %3, align 8, !tbaa !25
  %4 = getelementptr inbounds nuw i8, ptr %2, i64 316
  store i32 2, ptr %4, align 4, !tbaa !26
  %5 = getelementptr inbounds nuw i8, ptr %2, i64 2664
  %6 = tail call ptr @cholmod_analyze(ptr noundef nonnull %5, ptr noundef %2)
  %7 = load ptr, ptr %0, align 8, !tbaa !29
  %8 = getelementptr inbounds nuw i8, ptr %7, i64 2760
  store ptr %6, ptr %8, align 8, !tbaa !20
  ret i1 true
}